; ModuleID = '30/130.c'
source_filename = "30/130.c"
target datalayout = "e-m:e-p270:32:32-p271:32:32-p272:64:64-i64:64-f80:128-n8:16:32:64-S128"
target triple = "x86_64-pc-linux-gnu"

@.str = private unnamed_addr constant [3 x i8] c"%d\00", align 1

; Function Attrs: noinline nounwind uwtable
define dso_local i32 @main() #0 {
  %1 = alloca i32, align 4
  %2 = alloca i32, align 4
  %3 = alloca i32, align 4
  %4 = alloca i32, align 4
  %5 = alloca i32, align 4
  %6 = alloca i32, align 4
  %7 = alloca i32, align 4
  %8 = alloca i32, align 4
  store i32 0, i32* %1, align 4
  store i32 0, i32* %2, align 4
  store i32 0, i32* %3, align 4
  %9 = call i32 (i8*, ...) @__isoc99_scanf(i8* getelementptr inbounds ([3 x i8], [3 x i8]* @.str, i64 0, i64 0), i32* %8)
  store i32 0, i32* %4, align 4
  br label %10

10:                                               ; preds = %20, %0
  %11 = load i32, i32* %4, align 4
  %12 = load i32, i32* %8, align 4
  %13 = icmp sle i32 %11, %12
  br i1 %13, label %14, label %23

14:                                               ; preds = %10
  %15 = load i32, i32* %2, align 4
  %16 = load i32, i32* %4, align 4
  %17 = load i32, i32* %4, align 4
  %18 = mul nsw i32 %16, %17
  %19 = add nsw i32 %15, %18
  store i32 %19, i32* %2, align 4
  br label %20

20:                                               ; preds = %14
  %21 = load i32, i32* %4, align 4
  %22 = add nsw i32 %21, 1
  store i32 %22, i32* %4, align 4
  br label %10

23:                                               ; preds = %10
  store i32 1, i32* %5, align 4
  br label %24

24:                                               ; preds = %49, %23
  %25 = load i32, i32* %5, align 4
  %26 = load i32, i32* %8, align 4
  %27 = icmp sle i32 %25, %26
  br i1 %27, label %28, label %52

28:                                               ; preds = %24
  %29 = load i32, i32* %5, align 4
  %30 = srem i32 %29, 10
  store i32 %30, i32* %6, align 4
  %31 = load i32, i32* %5, align 4
  %32 = sdiv i32 %31, 10
  store i32 %32, i32* %7, align 4
  %33 = load i32, i32* %6, align 4
  %34 = icmp eq i32 %33, 7
  br i1 %34, label %42, label %35

35:                                               ; preds = %28
  %36 = load i32, i32* %7, align 4
  %37 = icmp eq i32 %36, 7
  br i1 %37, label %42, label %38

38:                                               ; preds = %35
  %39 = load i32, i32* %5, align 4
  %40 = srem i32 %39, 7
  %41 = icmp eq i32 %40, 0
  br i1 %41, label %42, label %48

42:                                               ; preds = %38, %35, %28
  %43 = load i32, i32* %3, align 4
  %44 = load i32, i32* %5, align 4
  %45 = load i32, i32* %5, align 4
  %46 = mul nsw i32 %44, %45
  %47 = add nsw i32 %43, %46
  store i32 %47, i32* %3, align 4
  br label %48

48:                                               ; preds = %42, %38
  br label %49

49:                                               ; preds = %48
  %50 = load i32, i32* %5, align 4
  %51 = add nsw i32 %50, 1
  store i32 %51, i32* %5, align 4
  br label %24

52:                                               ; preds = %24
  %53 = load i32, i32* %2, align 4
  %54 = load i32, i32* %3, align 4
  %55 = sub nsw i32 %53, %54
  %56 = call i32 (i8*, ...) @printf(i8* getelementptr inbounds ([3 x i8], [3 x i8]* @.str, i64 0, i64 0), i32 %55)
  ret i32 0
}

declare dso_local i32 @__isoc99_scanf(i8*, ...) #1

declare dso_local i32 @printf(i8*, ...) #1


!llvm.module.flags = !{!0}
!llvm.ident = !{!1}

!0 = !{i32 1, !"wchar_size", i32 4}
!1 = !{!"clang version 10.0.0-4ubuntu1 "}
